target datalayout = "e-m:e-p270:32:32-p271:32:32-p272:64:64-i64:64-i128:128-f80:128-n8:16:32:64-S128"
target triple = "x86_64-pc-linux-gnu"

%"class.llvm::ScaledNumber" = type <{ i64, i16, [6 x i8] }>
%"struct.llvm::BlockFrequencyInfoImplBase::BlockNode" = type { i32 }
%"class.std::vector" = type { %"struct.std::_Vector_base" }
%"struct.std::_Vector_base" = type { %"struct.std::_Vector_base<llvm::BlockFrequencyInfoImplBase::FrequencyData, std::allocator<llvm::BlockFrequencyInfoImplBase::FrequencyData>>::_Vector_impl" }
%"struct.std::_Vector_base<llvm::BlockFrequencyInfoImplBase::FrequencyData, std::allocator<llvm::BlockFrequencyInfoImplBase::FrequencyData>>::_Vector_impl" = type { %"struct.std::_Vector_base<llvm::BlockFrequencyInfoImplBase::FrequencyData, std::allocator<llvm::BlockFrequencyInfoImplBase::FrequencyData>>::_Vector_impl_data" }
%"struct.std::_Vector_base<llvm::BlockFrequencyInfoImplBase::FrequencyData, std::allocator<llvm::BlockFrequencyInfoImplBase::FrequencyData>>::_Vector_impl_data" = type { ptr, ptr, ptr }
%"class.std::vector.36" = type { %"struct.std::_Vector_base.37" }
%"struct.std::_Vector_base.37" = type { %"struct.std::_Vector_base<llvm::BlockFrequencyInfoImplBase::WorkingData, std::allocator<llvm::BlockFrequencyInfoImplBase::WorkingData>>::_Vector_impl" }
%"struct.std::_Vector_base<llvm::BlockFrequencyInfoImplBase::WorkingData, std::allocator<llvm::BlockFrequencyInfoImplBase::WorkingData>>::_Vector_impl" = type { %"struct.std::_Vector_base<llvm::BlockFrequencyInfoImplBase::WorkingData, std::allocator<llvm::BlockFrequencyInfoImplBase::WorkingData>>::_Vector_impl_data" }
%"struct.std::_Vector_base<llvm::BlockFrequencyInfoImplBase::WorkingData, std::allocator<llvm::BlockFrequencyInfoImplBase::WorkingData>>::_Vector_impl_data" = type { ptr, ptr, ptr }
%"class.llvm::BlockFrequencyInfoImplBase" = type { ptr, %"class.std::vector", %"class.llvm::SparseBitVector", %"class.std::vector.36", %"class.std::__cxx11::list.41" }
%"class.llvm::SparseBitVector" = type { %"class.std::__cxx11::list", %"struct.std::_List_iterator" }
%"class.std::__cxx11::list" = type { %"class.std::__cxx11::_List_base" }
%"class.std::__cxx11::_List_base" = type { %"struct.std::__cxx11::_List_base<llvm::SparseBitVectorElement<>, std::allocator<llvm::SparseBitVectorElement<>>>::_List_impl" }
%"struct.std::__cxx11::_List_base<llvm::SparseBitVectorElement<>, std::allocator<llvm::SparseBitVectorElement<>>>::_List_impl" = type { %"struct.std::__detail::_List_node_header" }
%"struct.std::__detail::_List_node_header" = type { %"struct.std::__detail::_List_node_base", i64 }
%"struct.std::__detail::_List_node_base" = type { ptr, ptr }
%"struct.std::_List_iterator" = type { ptr }
%"class.std::__cxx11::list.41" = type { %"class.std::__cxx11::_List_base.42" }
%"class.std::__cxx11::_List_base.42" = type { %"struct.std::__cxx11::_List_base<llvm::BlockFrequencyInfoImplBase::LoopData, std::allocator<llvm::BlockFrequencyInfoImplBase::LoopData>>::_List_impl" }
%"struct.std::__cxx11::_List_base<llvm::BlockFrequencyInfoImplBase::LoopData, std::allocator<llvm::BlockFrequencyInfoImplBase::LoopData>>::_List_impl" = type { %"struct.std::__detail::_List_node_header" }
%"struct.llvm::BlockFrequencyInfoImplBase::FrequencyData" = type { %"class.llvm::ScaledNumber", i64 }
%"class.llvm::BlockFrequency" = type { i64 }

; Function Attrs: mustprogress nounwind uwtable
define linkonce_odr hidden noundef nonnull align 8 dereferenceable(24) ptr @_ZNSt6vectorIN4llvm26BlockFrequencyInfoImplBase13FrequencyDataESaIS2_EEixEm(ptr noundef nonnull align 8 dereferenceable(24) %0, i64 noundef %1) #1 comdat align 2 {
  %3 = alloca ptr, align 8
  %4 = alloca i64, align 8
  store ptr %0, ptr %3, align 8
  store i64 %1, ptr %4, align 8
  %5 = load ptr, ptr %3, align 8
  %6 = getelementptr inbounds nuw %"struct.std::_Vector_base", ptr %5, i32 0, i32 0
  %7 = getelementptr inbounds nuw %"struct.std::_Vector_base<llvm::BlockFrequencyInfoImplBase::FrequencyData, std::allocator<llvm::BlockFrequencyInfoImplBase::FrequencyData>>::_Vector_impl_data", ptr %6, i32 0, i32 0
  %8 = load ptr, ptr %7, align 8
  %9 = load i64, ptr %4, align 8
  %10 = getelementptr inbounds %"struct.llvm::BlockFrequencyInfoImplBase::FrequencyData", ptr %8, i64 %9
  ret ptr %10
}

; Function Attrs: mustprogress nounwind uwtable
define linkonce_odr hidden noundef i64 @_ZNK4llvm14BlockFrequency12getFrequencyEv(ptr noundef nonnull align 8 dereferenceable(8) %0) #1 comdat align 2 {
  %2 = alloca ptr, align 8
  store ptr %0, ptr %2, align 8
  %3 = load ptr, ptr %2, align 8
  %4 = getelementptr inbounds nuw %"class.llvm::BlockFrequency", ptr %3, i32 0, i32 0
  %5 = load i64, ptr %4, align 8
  ret i64 %5
}

; Function Attrs: mustprogress nounwind uwtable
define dso_local void @_ZN4llvm26BlockFrequencyInfoImplBase12setBlockFreqERKNS0_9BlockNodeENS_14BlockFrequencyE(ptr noundef nonnull align 8 dereferenceable(112) %0, ptr noundef nonnull align 4 dereferenceable(4) %1, i64 %2) #1 align 2 {
  %4 = alloca %"class.llvm::BlockFrequency", align 8
  %5 = alloca ptr, align 8
  %6 = alloca ptr, align 8
  %7 = getelementptr inbounds nuw %"class.llvm::BlockFrequency", ptr %4, i32 0, i32 0
  store i64 %2, ptr %7, align 8
  store ptr %0, ptr %5, align 8
  store ptr %1, ptr %6, align 8
  %8 = load ptr, ptr %5, align 8
  %9 = call noundef i64 @_ZNK4llvm14BlockFrequency12getFrequencyEv(ptr noundef nonnull align 8 dereferenceable(8) %4)
  %10 = getelementptr inbounds nuw %"class.llvm::BlockFrequencyInfoImplBase", ptr %8, i32 0, i32 1
  %11 = load ptr, ptr %6, align 8
  %12 = getelementptr inbounds nuw %"struct.llvm::BlockFrequencyInfoImplBase::BlockNode", ptr %11, i32 0, i32 0
  %13 = load i32, ptr %12, align 4
  %14 = zext i32 %13 to i64
  %15 = call noundef nonnull align 8 dereferenceable(24) ptr @_ZNSt6vectorIN4llvm26BlockFrequencyInfoImplBase13FrequencyDataESaIS2_EEixEm(ptr noundef nonnull align 8 dereferenceable(24) %10, i64 noundef %14) #2
  %16 = getelementptr inbounds nuw %"struct.llvm::BlockFrequencyInfoImplBase::FrequencyData", ptr %15, i32 0, i32 1
  store i64 %9, ptr %16, align 8
  ret void
}