; Function Attrs: mustprogress nofree norecurse nosync nounwind willreturn memory(write, argmem: readwrite, inaccessiblemem: none) uwtable
define dso_local void @_ZN4llvm26BlockFrequencyInfoImplBase12setBlockFreqERKNS0_9BlockNodeENS_14BlockFrequencyE(ptr noundef nonnull readonly align 8 captures(none) dereferenceable(112) %0, ptr noundef nonnull readonly align 4 captures(none) dereferenceable(4) %1, i64 %2) local_unnamed_addr #8 align 2 {
  %4 = getelementptr inbounds nuw i8, ptr %0, i64 8
  %5 = load i32, ptr %1, align 4
  %6 = zext i32 %5 to i64
  %7 = load ptr, ptr %4, align 8
  %8 = getelementptr inbounds nuw %"struct.llvm::BlockFrequencyInfoImplBase::FrequencyData", ptr %7, i64 %6, i32 1
  store i64 %2, ptr %8, align 8
  ret void
}